; ModuleID = 'source-C-CXX/29/293.cpp'
source_filename = "source-C-CXX/29/293.cpp"
target datalayout = "e-m:e-p270:32:32-p271:32:32-p272:64:64-i64:64-f80:128-n8:16:32:64-S128"
target triple = "x86_64-pc-linux-gnu"

%"class.std::ios_base::Init" = type { i8 }
%"class.std::basic_istream" = type { i32 (...)**, i64, %"class.std::basic_ios" }
%"class.std::basic_ios" = type { %"class.std::ios_base", %"class.std::basic_ostream"*, i8, i8, %"class.std::basic_streambuf"*, %"class.std::ctype"*, %"class.std::num_put"*, %"class.std::num_get"* }
%"class.std::ios_base" = type { i32 (...)**, i64, i64, i32, i32, i32, %"struct.std::ios_base::_Callback_list"*, %"struct.std::ios_base::_Words", [8 x %"struct.std::ios_base::_Words"], i32, %"struct.std::ios_base::_Words"*, %"class.std::locale" }
%"struct.std::ios_base::_Callback_list" = type { %"struct.std::ios_base::_Callback_list"*, void (i32, %"class.std::ios_base"*, i32)*, i32, i32 }
%"struct.std::ios_base::_Words" = type { i8*, i64 }
%"class.std::locale" = type { %"class.std::locale::_Impl"* }
%"class.std::locale::_Impl" = type { i32, %"class.std::locale::facet"**, i64, %"class.std::locale::facet"**, i8** }
%"class.std::locale::facet" = type <{ i32 (...)**, i32, [4 x i8] }>
%"class.std::basic_ostream" = type { i32 (...)**, %"class.std::basic_ios" }
%"class.std::basic_streambuf" = type { i32 (...)**, i8*, i8*, i8*, i8*, i8*, i8*, %"class.std::locale" }
%"class.std::ctype" = type <{ %"class.std::locale::facet.base", [4 x i8], %struct.__locale_struct*, i8, [7 x i8], i32*, i32*, i16*, i8, [256 x i8], [256 x i8], i8, [6 x i8] }>
%"class.std::locale::facet.base" = type <{ i32 (...)**, i32 }>
%struct.__locale_struct = type { [13 x %struct.__locale_data*], i16*, i32*, i32*, [13 x i8*] }
%struct.__locale_data = type opaque
%"class.std::num_put" = type { %"class.std::locale::facet.base", [4 x i8] }
%"class.std::num_get" = type { %"class.std::locale::facet.base", [4 x i8] }

@_ZStL8__ioinit = internal global %"class.std::ios_base::Init" zeroinitializer, align 1
@__dso_handle = external hidden global i8
@_ZSt3cin = external global %"class.std::basic_istream", align 8
@_ZSt4cout = external global %"class.std::basic_ostream", align 8
@llvm.global_ctors = appending global [1 x { i32, void ()*, i8* }] [{ i32, void ()*, i8* } { i32 65535, void ()* @_GLOBAL__sub_I_293.cpp, i8* null }]

declare void @_ZNSt8ios_base4InitC1Ev(%"class.std::ios_base::Init"* nonnull align 1 dereferenceable(1)) unnamed_addr #0

; Function Attrs: nounwind
declare void @_ZNSt8ios_base4InitD1Ev(%"class.std::ios_base::Init"* nonnull align 1 dereferenceable(1)) unnamed_addr #1

; Function Attrs: nofree nounwind
declare i32 @__cxa_atexit(void (i8*)*, i8*, i8*) local_unnamed_addr #2

; Function Attrs: mustprogress norecurse sspstrong uwtable
define dso_local i32 @main() local_unnamed_addr #3 {
  %1 = alloca i32, align 4
  %2 = alloca [100 x i32], align 16
  %3 = bitcast i32* %1 to i8*
  call void @llvm.lifetime.start.p0i8(i64 4, i8* nonnull %3) #8
  %4 = bitcast [100 x i32]* %2 to i8*
  call void @llvm.lifetime.start.p0i8(i64 400, i8* nonnull %4) #8
  %5 = call nonnull align 8 dereferenceable(16) %"class.std::basic_istream"* @_ZNSirsERi(%"class.std::basic_istream"* nonnull align 8 dereferenceable(16) @_ZSt3cin, i32* nonnull align 4 dereferenceable(4) %1)
  %6 = load i32, i32* %1, align 4, !tbaa !5
  %7 = icmp slt i32 %6, 1
  br i1 %7, label %132, label %28

8:                                                ; preds = %43
  br i1 %7, label %47, label %9

9:                                                ; preds = %8
  %10 = add nsw i32 %6, -1
  %11 = zext i32 %10 to i33
  %12 = add nsw i32 %6, -2
  %13 = zext i32 %12 to i33
  %14 = mul i33 %11, %13
  %15 = add nsw i32 %6, -3
  %16 = zext i32 %15 to i33
  %17 = mul i33 %14, %16
  %18 = lshr i33 %17, 1
  %19 = trunc i33 %18 to i32
  %20 = mul i32 %19, 1431655766
  %21 = lshr i33 %14, 1
  %22 = trunc i33 %21 to i32
  %23 = mul i32 %22, 5
  %24 = add i32 %20, %23
  %25 = shl i32 %6, 2
  %26 = add i32 %24, %25
  %27 = add i32 %26, -3
  br label %47

28:                                               ; preds = %0, %43
  %29 = phi i32 [ %44, %43 ], [ 1, %0 ]
  %30 = phi i32 [ %45, %43 ], [ 1, %0 ]
  %31 = urem i32 %30, 10
  %32 = icmp eq i32 %31, 7
  %33 = add nsw i32 %30, -70
  %34 = icmp ult i32 %33, 10
  %35 = select i1 %32, i1 true, i1 %34
  %36 = urem i32 %30, 7
  %37 = icmp eq i32 %36, 0
  %38 = select i1 %35, i1 true, i1 %37
  br i1 %38, label %39, label %43

39:                                               ; preds = %28
  %40 = sext i32 %29 to i64
  %41 = getelementptr inbounds [100 x i32], [100 x i32]* %2, i64 0, i64 %40
  store i32 %30, i32* %41, align 4, !tbaa !5
  %42 = add nsw i32 %29, 1
  br label %43

43:                                               ; preds = %28, %39
  %44 = phi i32 [ %42, %39 ], [ %29, %28 ]
  %45 = add nuw i32 %30, 1
  %46 = icmp eq i32 %30, %6
  br i1 %46, label %8, label %28, !llvm.loop !9

47:                                               ; preds = %9, %8
  %48 = phi i32 [ 0, %8 ], [ %27, %9 ]
  %49 = icmp sgt i32 %44, 1
  br i1 %49, label %50, label %132

50:                                               ; preds = %47
  %51 = zext i32 %44 to i64
  %52 = add nsw i64 %51, -1
  %53 = icmp ult i64 %52, 8
  br i1 %53, label %120, label %54

54:                                               ; preds = %50
  %55 = and i64 %52, -8
  %56 = or i64 %55, 1
  %57 = add nsw i64 %55, -8
  %58 = lshr exact i64 %57, 3
  %59 = add nuw nsw i64 %58, 1
  %60 = and i64 %59, 1
  %61 = icmp eq i64 %57, 0
  br i1 %61, label %96, label %62

62:                                               ; preds = %54
  %63 = and i64 %59, 4611686018427387902
  br label %64

64:                                               ; preds = %64, %62
  %65 = phi i64 [ 0, %62 ], [ %91, %64 ]
  %66 = phi <4 x i32> [ zeroinitializer, %62 ], [ %89, %64 ]
  %67 = phi <4 x i32> [ zeroinitializer, %62 ], [ %90, %64 ]
  %68 = phi i64 [ %63, %62 ], [ %92, %64 ]
  %69 = or i64 %65, 1
  %70 = getelementptr inbounds [100 x i32], [100 x i32]* %2, i64 0, i64 %69
  %71 = bitcast i32* %70 to <4 x i32>*
  %72 = load <4 x i32>, <4 x i32>* %71, align 4, !tbaa !5
  %73 = getelementptr inbounds i32, i32* %70, i64 4
  %74 = bitcast i32* %73 to <4 x i32>*
  %75 = load <4 x i32>, <4 x i32>* %74, align 4, !tbaa !5
  %76 = mul nsw <4 x i32> %72, %72
  %77 = mul nsw <4 x i32> %75, %75
  %78 = add <4 x i32> %76, %66
  %79 = add <4 x i32> %77, %67
  %80 = or i64 %65, 9
  %81 = getelementptr inbounds [100 x i32], [100 x i32]* %2, i64 0, i64 %80
  %82 = bitcast i32* %81 to <4 x i32>*
  %83 = load <4 x i32>, <4 x i32>* %82, align 4, !tbaa !5
  %84 = getelementptr inbounds i32, i32* %81, i64 4
  %85 = bitcast i32* %84 to <4 x i32>*
  %86 = load <4 x i32>, <4 x i32>* %85, align 4, !tbaa !5
  %87 = mul nsw <4 x i32> %83, %83
  %88 = mul nsw <4 x i32> %86, %86
  %89 = add <4 x i32> %87, %78
  %90 = add <4 x i32> %88, %79
  %91 = add nuw i64 %65, 16
  %92 = add i64 %68, -2
  %93 = icmp eq i64 %92, 0
  br i1 %93, label %94, label %64, !llvm.loop !11

94:                                               ; preds = %64
  %95 = or i64 %91, 1
  br label %96

96:                                               ; preds = %94, %54
  %97 = phi <4 x i32> [ undef, %54 ], [ %89, %94 ]
  %98 = phi <4 x i32> [ undef, %54 ], [ %90, %94 ]
  %99 = phi i64 [ 1, %54 ], [ %95, %94 ]
  %100 = phi <4 x i32> [ zeroinitializer, %54 ], [ %89, %94 ]
  %101 = phi <4 x i32> [ zeroinitializer, %54 ], [ %90, %94 ]
  %102 = icmp eq i64 %60, 0
  br i1 %102, label %114, label %103

103:                                              ; preds = %96
  %104 = getelementptr inbounds [100 x i32], [100 x i32]* %2, i64 0, i64 %99
  %105 = bitcast i32* %104 to <4 x i32>*
  %106 = load <4 x i32>, <4 x i32>* %105, align 4, !tbaa !5
  %107 = getelementptr inbounds i32, i32* %104, i64 4
  %108 = bitcast i32* %107 to <4 x i32>*
  %109 = load <4 x i32>, <4 x i32>* %108, align 4, !tbaa !5
  %110 = mul nsw <4 x i32> %109, %109
  %111 = add <4 x i32> %110, %101
  %112 = mul nsw <4 x i32> %106, %106
  %113 = add <4 x i32> %112, %100
  br label %114

114:                                              ; preds = %96, %103
  %115 = phi <4 x i32> [ %97, %96 ], [ %113, %103 ]
  %116 = phi <4 x i32> [ %98, %96 ], [ %111, %103 ]
  %117 = add <4 x i32> %116, %115
  %118 = call i32 @llvm.vector.reduce.add.v4i32(<4 x i32> %117)
  %119 = icmp eq i64 %52, %55
  br i1 %119, label %132, label %120

120:                                              ; preds = %50, %114
  %121 = phi i64 [ 1, %50 ], [ %56, %114 ]
  %122 = phi i32 [ 0, %50 ], [ %118, %114 ]
  br label %123

123:                                              ; preds = %120, %123
  %124 = phi i64 [ %130, %123 ], [ %121, %120 ]
  %125 = phi i32 [ %129, %123 ], [ %122, %120 ]
  %126 = getelementptr inbounds [100 x i32], [100 x i32]* %2, i64 0, i64 %124
  %127 = load i32, i32* %126, align 4, !tbaa !5
  %128 = mul nsw i32 %127, %127
  %129 = add nuw nsw i32 %128, %125
  %130 = add nuw nsw i64 %124, 1
  %131 = icmp eq i64 %130, %51
  br i1 %131, label %132, label %123, !llvm.loop !13

132:                                              ; preds = %123, %114, %0, %47
  %133 = phi i32 [ %48, %47 ], [ 0, %0 ], [ %48, %114 ], [ %48, %123 ]
  %134 = phi i32 [ 0, %47 ], [ 0, %0 ], [ %118, %114 ], [ %129, %123 ]
  %135 = sub nsw i32 %133, %134
  %136 = call nonnull align 8 dereferenceable(8) %"class.std::basic_ostream"* @_ZNSolsEi(%"class.std::basic_ostream"* nonnull align 8 dereferenceable(8) @_ZSt4cout, i32 %135)
  %137 = bitcast %"class.std::basic_ostream"* %136 to i8**
  %138 = load i8*, i8** %137, align 8, !tbaa !15
  %139 = getelementptr i8, i8* %138, i64 -24
  %140 = bitcast i8* %139 to i64*
  %141 = load i64, i64* %140, align 8
  %142 = bitcast %"class.std::basic_ostream"* %136 to i8*
  %143 = add nsw i64 %141, 240
  %144 = getelementptr inbounds i8, i8* %142, i64 %143
  %145 = bitcast i8* %144 to %"class.std::ctype"**
  %146 = load %"class.std::ctype"*, %"class.std::ctype"** %145, align 8, !tbaa !17
  %147 = icmp eq %"class.std::ctype"* %146, null
  br i1 %147, label %148, label %149

148:                                              ; preds = %132
  call void @_ZSt16__throw_bad_castv() #9
  unreachable

149:                                              ; preds = %132
  %150 = getelementptr inbounds %"class.std::ctype", %"class.std::ctype"* %146, i64 0, i32 8
  %151 = load i8, i8* %150, align 8, !tbaa !21
  %152 = icmp eq i8 %151, 0
  br i1 %152, label %156, label %153

153:                                              ; preds = %149
  %154 = getelementptr inbounds %"class.std::ctype", %"class.std::ctype"* %146, i64 0, i32 9, i64 10
  %155 = load i8, i8* %154, align 1, !tbaa !23
  br label %162

156:                                              ; preds = %149
  call void @_ZNKSt5ctypeIcE13_M_widen_initEv(%"class.std::ctype"* nonnull align 8 dereferenceable(570) %146)
  %157 = bitcast %"class.std::ctype"* %146 to i8 (%"class.std::ctype"*, i8)***
  %158 = load i8 (%"class.std::ctype"*, i8)**, i8 (%"class.std::ctype"*, i8)*** %157, align 8, !tbaa !15
  %159 = getelementptr inbounds i8 (%"class.std::ctype"*, i8)*, i8 (%"class.std::ctype"*, i8)** %158, i64 6
  %160 = load i8 (%"class.std::ctype"*, i8)*, i8 (%"class.std::ctype"*, i8)** %159, align 8
  %161 = call signext i8 %160(%"class.std::ctype"* nonnull align 8 dereferenceable(570) %146, i8 signext 10)
  br label %162

162:                                              ; preds = %153, %156
  %163 = phi i8 [ %155, %153 ], [ %161, %156 ]
  %164 = call nonnull align 8 dereferenceable(8) %"class.std::basic_ostream"* @_ZNSo3putEc(%"class.std::basic_ostream"* nonnull align 8 dereferenceable(8) %136, i8 signext %163)
  %165 = call nonnull align 8 dereferenceable(8) %"class.std::basic_ostream"* @_ZNSo5flushEv(%"class.std::basic_ostream"* nonnull align 8 dereferenceable(8) %164)
  call void @llvm.lifetime.end.p0i8(i64 400, i8* nonnull %4) #8
  call void @llvm.lifetime.end.p0i8(i64 4, i8* nonnull %3) #8
  ret i32 0
}

; Function Attrs: argmemonly mustprogress nofree nosync nounwind willreturn
declare void @llvm.lifetime.start.p0i8(i64 immarg, i8* nocapture) #4

declare nonnull align 8 dereferenceable(16) %"class.std::basic_istream"* @_ZNSirsERi(%"class.std::basic_istream"* nonnull align 8 dereferenceable(16), i32* nonnull align 4 dereferenceable(4)) local_unnamed_addr #0

declare nonnull align 8 dereferenceable(8) %"class.std::basic_ostream"* @_ZNSolsEi(%"class.std::basic_ostream"* nonnull align 8 dereferenceable(8), i32) local_unnamed_addr #0

; Function Attrs: argmemonly mustprogress nofree nosync nounwind willreturn
declare void @llvm.lifetime.end.p0i8(i64 immarg, i8* nocapture) #4

declare nonnull align 8 dereferenceable(8) %"class.std::basic_ostream"* @_ZNSo3putEc(%"class.std::basic_ostream"* nonnull align 8 dereferenceable(8), i8 signext) local_unnamed_addr #0

declare nonnull align 8 dereferenceable(8) %"class.std::basic_ostream"* @_ZNSo5flushEv(%"class.std::basic_ostream"* nonnull align 8 dereferenceable(8)) local_unnamed_addr #0

; Function Attrs: noreturn
declare void @_ZSt16__throw_bad_castv() local_unnamed_addr #5

declare void @_ZNKSt5ctypeIcE13_M_widen_initEv(%"class.std::ctype"* nonnull align 8 dereferenceable(570)) local_unnamed_addr #0

; Function Attrs: sspstrong uwtable
define internal void @_GLOBAL__sub_I_293.cpp() #6 section ".text.startup" {
  tail call void @_ZNSt8ios_base4InitC1Ev(%"class.std::ios_base::Init"* nonnull align 1 dereferenceable(1) @_ZStL8__ioinit)
  %1 = tail call i32 @__cxa_atexit(void (i8*)* bitcast (void (%"class.std::ios_base::Init"*)* @_ZNSt8ios_base4InitD1Ev to void (i8*)*), i8* getelementptr inbounds (%"class.std::ios_base::Init", %"class.std::ios_base::Init"* @_ZStL8__ioinit, i64 0, i32 0), i8* nonnull @__dso_handle) #8
  ret void
}

; Function Attrs: nofree nosync nounwind readnone willreturn
declare i32 @llvm.vector.reduce.add.v4i32(<4 x i32>) #7


!llvm.module.flags = !{!0, !1, !2, !3}
!llvm.ident = !{!4}

!0 = !{i32 1, !"wchar_size", i32 4}
!1 = !{i32 7, !"PIC Level", i32 2}
!2 = !{i32 7, !"PIE Level", i32 2}
!3 = !{i32 7, !"uwtable", i32 1}
!4 = !{!"clang version 13.0.0"}
!5 = !{!6, !6, i64 0}
!6 = !{!"int", !7, i64 0}
!7 = !{!"omnipotent char", !8, i64 0}
!8 = !{!"Simple C++ TBAA"}
!9 = distinct !{!9, !10}
!10 = !{!"llvm.loop.mustprogress"}
!11 = distinct !{!11, !10, !12}
!12 = !{!"llvm.loop.isvectorized", i32 1}
!13 = distinct !{!13, !10, !14, !12}
!14 = !{!"llvm.loop.unroll.runtime.disable"}
!15 = !{!16, !16, i64 0}
!16 = !{!"vtable pointer", !8, i64 0}
!17 = !{!18, !19, i64 240}
!18 = !{!"_ZTSSt9basic_iosIcSt11char_traitsIcEE", !19, i64 216, !7, i64 224, !20, i64 225, !19, i64 232, !19, i64 240, !19, i64 248, !19, i64 256}
!19 = !{!"any pointer", !7, i64 0}
!20 = !{!"bool", !7, i64 0}
!21 = !{!22, !7, i64 56}
!22 = !{!"_ZTSSt5ctypeIcE", !19, i64 16, !20, i64 24, !19, i64 32, !19, i64 40, !19, i64 48, !7, i64 56, !7, i64 57, !7, i64 313, !7, i64 569}
!23 = !{!7, !7, i64 0}
